target datalayout = "e-m:e-p270:32:32-p271:32:32-p272:64:64-i64:64-i128:128-f80:128-n8:16:32:64-S128"
target triple = "x86_64-pc-linux-gnu"

; Function Attrs: nounwind uwtable
define void @Abc_CexFreeP(ptr noundef %0) #0 {
  %2 = alloca ptr, align 8
  store ptr %0, ptr %2, align 8, !tbaa !35
  %3 = load ptr, ptr %2, align 8, !tbaa !35
  %4 = load ptr, ptr %3, align 8, !tbaa !7
  %5 = icmp eq ptr %4, null
  br i1 %5, label %6, label %7

6:                                                ; preds = %1
  br label %23

7:                                                ; preds = %1
  %8 = load ptr, ptr %2, align 8, !tbaa !35
  %9 = load ptr, ptr %8, align 8, !tbaa !7
  %10 = icmp eq ptr %9, inttoptr (i64 1 to ptr)
  br i1 %10, label %11, label %13

11:                                               ; preds = %7
  %12 = load ptr, ptr %2, align 8, !tbaa !35
  store ptr null, ptr %12, align 8, !tbaa !7
  br label %23

13:                                               ; preds = %7
  %14 = load ptr, ptr %2, align 8, !tbaa !35
  %15 = load ptr, ptr %14, align 8, !tbaa !7
  %16 = icmp ne ptr %15, null
  br i1 %16, label %17, label %21

17:                                               ; preds = %13
  %18 = load ptr, ptr %2, align 8, !tbaa !35
  %19 = load ptr, ptr %18, align 8, !tbaa !7
  call void @free(ptr noundef %19) #8
  %20 = load ptr, ptr %2, align 8, !tbaa !35
  store ptr null, ptr %20, align 8, !tbaa !7
  br label %22

21:                                               ; preds = %13
  br label %22

22:                                               ; preds = %21, %17
  br label %23

23:                                               ; preds = %6, %22, %11
  ret void
}