; Function Attrs: mustprogress nounwind willreturn uwtable
define void @Abc_CexFreeP(ptr noundef captures(none) %0) local_unnamed_addr #6 {
  %2 = load ptr, ptr %0, align 8, !tbaa !30
  %magicptr = ptrtoint ptr %2 to i64
  switch i64 %magicptr, label %3 [
    i64 0, label %4
    i64 1, label %.sink.split
  ]

3:                                                ; preds = %1
  tail call void @free(ptr noundef %2) #16
  br label %.sink.split

.sink.split:                                      ; preds = %1, %3
  store ptr null, ptr %0, align 8, !tbaa !30
  br label %4

4:                                                ; preds = %.sink.split, %1
  ret void
}